target datalayout = "e-m:e-p270:32:32-p271:32:32-p272:64:64-i64:64-i128:128-f80:128-n8:16:32:64-S128"
target triple = "x86_64-pc-linux-gnu"

%"struct.duckdb_libpgquery::yyguts_t" = type { ptr, ptr, ptr, i64, i64, ptr, i8, i64, i64, ptr, i32, i32, i32, i32, i32, ptr, i32, ptr, i32, i32, ptr, i32, i32, ptr, ptr }
%"struct.duckdb_libpgquery::core_yy_extra_type" = type { ptr, i64, ptr, i32, i32, i8, i8, ptr, i32, i32, i32, ptr, i32, i8, i8 }

@.str.41 = private unnamed_addr constant [29 x i8] c"invalid Unicode escape value\00", align 1

; Function Attrs: mustprogress uwtable
define internal void @_ZN17duckdb_libpgqueryL6addlitEPciPv(ptr noundef %0, i32 noundef %1, ptr noundef %2) #0 {
  %4 = alloca ptr, align 8
  %5 = alloca i32, align 4
  %6 = alloca ptr, align 8
  store ptr %0, ptr %4, align 8, !tbaa !30
  store i32 %1, ptr %5, align 4, !tbaa !33
  store ptr %2, ptr %6, align 8, !tbaa !10
  %7 = load ptr, ptr %6, align 8, !tbaa !10
  %8 = getelementptr inbounds nuw %"struct.duckdb_libpgquery::yyguts_t", ptr %7, i32 0, i32 0
  %9 = load ptr, ptr %8, align 8, !tbaa !43
  %10 = getelementptr inbounds nuw %"struct.duckdb_libpgquery::core_yy_extra_type", ptr %9, i32 0, i32 8
  %11 = load i32, ptr %10, align 8, !tbaa !49
  %12 = load i32, ptr %5, align 4, !tbaa !33
  %13 = add nsw i32 %11, %12
  %14 = load ptr, ptr %6, align 8, !tbaa !10
  %15 = getelementptr inbounds nuw %"struct.duckdb_libpgquery::yyguts_t", ptr %14, i32 0, i32 0
  %16 = load ptr, ptr %15, align 8, !tbaa !43
  %17 = getelementptr inbounds nuw %"struct.duckdb_libpgquery::core_yy_extra_type", ptr %16, i32 0, i32 9
  %18 = load i32, ptr %17, align 4, !tbaa !80
  %19 = icmp sge i32 %13, %18
  br i1 %19, label %20, label %59

20:                                               ; preds = %3
  br label %21

21:                                               ; preds = %28, %20
  %22 = load ptr, ptr %6, align 8, !tbaa !10
  %23 = getelementptr inbounds nuw %"struct.duckdb_libpgquery::yyguts_t", ptr %22, i32 0, i32 0
  %24 = load ptr, ptr %23, align 8, !tbaa !43
  %25 = getelementptr inbounds nuw %"struct.duckdb_libpgquery::core_yy_extra_type", ptr %24, i32 0, i32 9
  %26 = load i32, ptr %25, align 4, !tbaa !80
  %27 = mul nsw i32 %26, 2
  store i32 %27, ptr %25, align 4, !tbaa !80
  br label %28

28:                                               ; preds = %21
  %29 = load ptr, ptr %6, align 8, !tbaa !10
  %30 = getelementptr inbounds nuw %"struct.duckdb_libpgquery::yyguts_t", ptr %29, i32 0, i32 0
  %31 = load ptr, ptr %30, align 8, !tbaa !43
  %32 = getelementptr inbounds nuw %"struct.duckdb_libpgquery::core_yy_extra_type", ptr %31, i32 0, i32 8
  %33 = load i32, ptr %32, align 8, !tbaa !49
  %34 = load i32, ptr %5, align 4, !tbaa !33
  %35 = add nsw i32 %33, %34
  %36 = load ptr, ptr %6, align 8, !tbaa !10
  %37 = getelementptr inbounds nuw %"struct.duckdb_libpgquery::yyguts_t", ptr %36, i32 0, i32 0
  %38 = load ptr, ptr %37, align 8, !tbaa !43
  %39 = getelementptr inbounds nuw %"struct.duckdb_libpgquery::core_yy_extra_type", ptr %38, i32 0, i32 9
  %40 = load i32, ptr %39, align 4, !tbaa !80
  %41 = icmp sge i32 %35, %40
  br i1 %41, label %21, label %42, !llvm.loop !81

42:                                               ; preds = %28
  %43 = load ptr, ptr %6, align 8, !tbaa !10
  %44 = getelementptr inbounds nuw %"struct.duckdb_libpgquery::yyguts_t", ptr %43, i32 0, i32 0
  %45 = load ptr, ptr %44, align 8, !tbaa !43
  %46 = getelementptr inbounds nuw %"struct.duckdb_libpgquery::core_yy_extra_type", ptr %45, i32 0, i32 7
  %47 = load ptr, ptr %46, align 8, !tbaa !61
  %48 = load ptr, ptr %6, align 8, !tbaa !10
  %49 = getelementptr inbounds nuw %"struct.duckdb_libpgquery::yyguts_t", ptr %48, i32 0, i32 0
  %50 = load ptr, ptr %49, align 8, !tbaa !43
  %51 = getelementptr inbounds nuw %"struct.duckdb_libpgquery::core_yy_extra_type", ptr %50, i32 0, i32 9
  %52 = load i32, ptr %51, align 4, !tbaa !80
  %53 = sext i32 %52 to i64
  %54 = call noundef ptr @_ZN17duckdb_libpgquery8repallocEPvm(ptr noundef %47, i64 noundef %53)
  %55 = load ptr, ptr %6, align 8, !tbaa !10
  %56 = getelementptr inbounds nuw %"struct.duckdb_libpgquery::yyguts_t", ptr %55, i32 0, i32 0
  %57 = load ptr, ptr %56, align 8, !tbaa !43
  %58 = getelementptr inbounds nuw %"struct.duckdb_libpgquery::core_yy_extra_type", ptr %57, i32 0, i32 7
  store ptr %54, ptr %58, align 8, !tbaa !61
  br label %59

59:                                               ; preds = %42, %3
  %60 = load ptr, ptr %6, align 8, !tbaa !10
  %61 = getelementptr inbounds nuw %"struct.duckdb_libpgquery::yyguts_t", ptr %60, i32 0, i32 0
  %62 = load ptr, ptr %61, align 8, !tbaa !43
  %63 = getelementptr inbounds nuw %"struct.duckdb_libpgquery::core_yy_extra_type", ptr %62, i32 0, i32 7
  %64 = load ptr, ptr %63, align 8, !tbaa !61
  %65 = load ptr, ptr %6, align 8, !tbaa !10
  %66 = getelementptr inbounds nuw %"struct.duckdb_libpgquery::yyguts_t", ptr %65, i32 0, i32 0
  %67 = load ptr, ptr %66, align 8, !tbaa !43
  %68 = getelementptr inbounds nuw %"struct.duckdb_libpgquery::core_yy_extra_type", ptr %67, i32 0, i32 8
  %69 = load i32, ptr %68, align 8, !tbaa !49
  %70 = sext i32 %69 to i64
  %71 = getelementptr inbounds i8, ptr %64, i64 %70
  %72 = load ptr, ptr %4, align 8, !tbaa !30
  %73 = load i32, ptr %5, align 4, !tbaa !33
  %74 = sext i32 %73 to i64
  call void @llvm.memcpy.p0.p0.i64(ptr align 1 %71, ptr align 1 %72, i64 %74, i1 false)
  %75 = load i32, ptr %5, align 4, !tbaa !33
  %76 = load ptr, ptr %6, align 8, !tbaa !10
  %77 = getelementptr inbounds nuw %"struct.duckdb_libpgquery::yyguts_t", ptr %76, i32 0, i32 0
  %78 = load ptr, ptr %77, align 8, !tbaa !43
  %79 = getelementptr inbounds nuw %"struct.duckdb_libpgquery::core_yy_extra_type", ptr %78, i32 0, i32 8
  %80 = load i32, ptr %79, align 8, !tbaa !49
  %81 = add nsw i32 %80, %75
  store i32 %81, ptr %79, align 8, !tbaa !49
  ret void
}

; Function Attrs: mustprogress uwtable
define internal void @_ZN17duckdb_libpgqueryL10addunicodeEjPv(i32 noundef %0, ptr noundef %1) #0 {
  %3 = alloca i32, align 4
  %4 = alloca ptr, align 8
  %5 = alloca [8 x i8], align 1
  store i32 %0, ptr %3, align 4, !tbaa !33
  store ptr %1, ptr %4, align 8, !tbaa !10
  call void @llvm.lifetime.start.p0(i64 8, ptr %5) #11
  %6 = load i32, ptr %3, align 4, !tbaa !33
  %7 = icmp eq i32 %6, 0
  br i1 %7, label %11, label %8

8:                                                ; preds = %2
  %9 = load i32, ptr %3, align 4, !tbaa !33
  %10 = icmp ugt i32 %9, 1114111
  br i1 %10, label %11, label %13

11:                                               ; preds = %8, %2
  %12 = load ptr, ptr %4, align 8, !tbaa !10
  call void @_ZN17duckdb_libpgquery15scanner_yyerrorEPKcPv(ptr noundef @.str.41, ptr noundef %12)
  br label %13

13:                                               ; preds = %11, %8
  %14 = load i32, ptr %3, align 4, !tbaa !33
  %15 = icmp ugt i32 %14, 127
  br i1 %15, label %16, label %21

16:                                               ; preds = %13
  %17 = load ptr, ptr %4, align 8, !tbaa !10
  %18 = getelementptr inbounds nuw %"struct.duckdb_libpgquery::yyguts_t", ptr %17, i32 0, i32 0
  %19 = load ptr, ptr %18, align 8, !tbaa !43
  %20 = getelementptr inbounds nuw %"struct.duckdb_libpgquery::core_yy_extra_type", ptr %19, i32 0, i32 14
  store i8 1, ptr %20, align 1, !tbaa !57
  br label %21

21:                                               ; preds = %16, %13
  %22 = load i32, ptr %3, align 4, !tbaa !33
  %23 = getelementptr inbounds [8 x i8], ptr %5, i64 0, i64 0
  %24 = call noundef ptr @_ZN17duckdb_libpgquery15unicode_to_utf8EjPh(i32 noundef %22, ptr noundef %23)
  %25 = getelementptr inbounds [8 x i8], ptr %5, i64 0, i64 0
  %26 = getelementptr inbounds [8 x i8], ptr %5, i64 0, i64 0
  %27 = call noundef i32 @_ZN17duckdb_libpgquery8pg_mblenEPKc(ptr noundef %26)
  %28 = load ptr, ptr %4, align 8, !tbaa !10
  call void @_ZN17duckdb_libpgqueryL6addlitEPciPv(ptr noundef %25, i32 noundef %27, ptr noundef %28)
  call void @llvm.lifetime.end.p0(i64 8, ptr %5) #11
  ret void
}