; Function Attrs: mustprogress uwtable
define internal fastcc void @_ZN17duckdb_libpgqueryL10addunicodeEjPv(i32 noundef %0, ptr noundef readonly captures(none) %1) unnamed_addr #0 {
  %3 = alloca [8 x i8], align 1
  call void @llvm.lifetime.start.p0(i64 8, ptr nonnull %3) #22
  %4 = add i32 %0, -1114112
  %or.cond = icmp ult i32 %4, -1114111
  br i1 %or.cond, label %5, label %6

5:                                                ; preds = %2
  tail call void @_ZN17duckdb_libpgquery15scanner_yyerrorEPKcPv(ptr noundef nonnull @.str.41, ptr noundef %1)
  br label %6

6:                                                ; preds = %2, %5
  %7 = icmp ugt i32 %0, 127
  br i1 %7, label %8, label %11

8:                                                ; preds = %6
  %9 = load ptr, ptr %1, align 8, !tbaa !43
  %10 = getelementptr inbounds nuw i8, ptr %9, i64 77
  store i8 1, ptr %10, align 1, !tbaa !60
  br label %11

11:                                               ; preds = %8, %6
  %12 = call noundef ptr @_ZN17duckdb_libpgquery15unicode_to_utf8EjPh(i32 noundef %0, ptr noundef nonnull %3)
  %13 = call noundef i32 @_ZN17duckdb_libpgquery8pg_mblenEPKc(ptr noundef nonnull %3)
  %14 = load ptr, ptr %1, align 8, !tbaa !43
  %15 = getelementptr inbounds nuw i8, ptr %14, i64 48
  %16 = load i32, ptr %15, align 8, !tbaa !50
  %17 = add nsw i32 %16, %13
  %18 = getelementptr inbounds nuw i8, ptr %14, i64 52
  %19 = load i32, ptr %18, align 4, !tbaa !51
  %.not.i = icmp slt i32 %17, %19
  br i1 %.not.i, label %._crit_edge.i, label %.preheader.i

._crit_edge.i:                                    ; preds = %11
  %.phi.trans.insert.i = getelementptr inbounds nuw i8, ptr %14, i64 40
  %.pre.i = load ptr, ptr %.phi.trans.insert.i, align 8, !tbaa !52
  br label %_ZN17duckdb_libpgqueryL6addlitEPciPv.exit

.preheader.i:                                     ; preds = %11, %.preheader.i
  %20 = phi i32 [ %21, %.preheader.i ], [ %19, %11 ]
  %21 = shl nsw i32 %20, 1
  %.not15.i = icmp slt i32 %17, %21
  br i1 %.not15.i, label %22, label %.preheader.i, !llvm.loop !53

22:                                               ; preds = %.preheader.i
  store i32 %21, ptr %18, align 4, !tbaa !51
  %23 = getelementptr inbounds nuw i8, ptr %14, i64 40
  %24 = load ptr, ptr %23, align 8, !tbaa !52
  %25 = sext i32 %21 to i64
  %26 = call noundef ptr @_ZN17duckdb_libpgquery8repallocEPvm(ptr noundef %24, i64 noundef %25)
  %27 = load ptr, ptr %1, align 8, !tbaa !43
  %28 = getelementptr inbounds nuw i8, ptr %27, i64 40
  store ptr %26, ptr %28, align 8, !tbaa !52
  %.phi.trans.insert17.i = getelementptr inbounds nuw i8, ptr %27, i64 48
  %.pre18.i = load i32, ptr %.phi.trans.insert17.i, align 8, !tbaa !50
  br label %_ZN17duckdb_libpgqueryL6addlitEPciPv.exit

_ZN17duckdb_libpgqueryL6addlitEPciPv.exit:        ; preds = %._crit_edge.i, %22
  %29 = phi i32 [ %.pre18.i, %22 ], [ %16, %._crit_edge.i ]
  %30 = phi ptr [ %26, %22 ], [ %.pre.i, %._crit_edge.i ]
  %31 = sext i32 %29 to i64
  %32 = getelementptr inbounds i8, ptr %30, i64 %31
  %33 = sext i32 %13 to i64
  call void @llvm.memcpy.p0.p0.i64(ptr align 1 %32, ptr nonnull readonly align 1 %3, i64 %33, i1 false)
  %34 = load ptr, ptr %1, align 8, !tbaa !43
  %35 = getelementptr inbounds nuw i8, ptr %34, i64 48
  %36 = load i32, ptr %35, align 8, !tbaa !50
  %37 = add nsw i32 %36, %13
  store i32 %37, ptr %35, align 8, !tbaa !50
  call void @llvm.lifetime.end.p0(i64 8, ptr nonnull %3) #22
  ret void
}